; Function Attrs: mustprogress uwtable
define internal noundef float @_ZN12_GLOBAL__N_16dihresIL18BondedKernelFlavor2EEEfiPKiPK9t_iparamsPA3_KfPA4_fPA3_fPK5t_pbcfPfN3gmx8ArrayRefIS7_EEP8t_fcdataP12t_disresdataP12t_oriresdataPi(i32 noundef %0, ptr nocapture noundef readonly %1, ptr nocapture noundef readonly %2, ptr noundef %3, ptr noundef %4, ptr noundef %5, ptr noundef %6, float noundef %7, ptr nocapture noundef %8, ptr nocapture noundef readnone byval(%"class.gmx::ArrayRef") align 8 %9, ptr nocapture readnone %10, ptr nocapture readnone %11, ptr nocapture readnone %12, ptr nocapture readnone %13) #4 {
  %15 = alloca i32, align 4
  %16 = alloca i32, align 4
  %17 = alloca i32, align 4
  %18 = alloca [3 x float], align 4
  %19 = alloca [3 x float], align 4
  %20 = alloca [3 x float], align 4
  %21 = alloca [3 x float], align 4
  %22 = alloca [3 x float], align 4
  %23 = fsub float 1.000000e+00, %7
  %invariant.gep = getelementptr i8, ptr %1, i64 16
  %24 = icmp sgt i32 %0, 0
  br i1 %24, label %.lr.ph, label %._crit_edge

.lr.ph:                                           ; preds = %14, %.thread
  %indvars.iv = phi i64 [ %indvars.iv.next, %.thread ], [ 0, %14 ]
  %.0103 = phi float [ %.1, %.thread ], [ 0.000000e+00, %14 ]
  %25 = getelementptr inbounds i32, ptr %1, i64 %indvars.iv
  %26 = load i32, ptr %25, align 4
  %27 = getelementptr i8, ptr %25, i64 4
  %28 = load i32, ptr %27, align 4
  %29 = getelementptr i8, ptr %25, i64 8
  %30 = load i32, ptr %29, align 4
  %31 = getelementptr i8, ptr %25, i64 12
  %32 = load i32, ptr %31, align 4
  %indvars.iv.next = add nuw nsw i64 %indvars.iv, 5
  %gep = getelementptr i32, ptr %invariant.gep, i64 %indvars.iv
  %33 = load i32, ptr %gep, align 4
  %34 = sext i32 %26 to i64
  %35 = getelementptr inbounds %union.t_iparams, ptr %2, i64 %34
  %36 = getelementptr inbounds i8, ptr %35, i64 8
  %37 = load float, ptr %36, align 4
  %38 = getelementptr inbounds i8, ptr %35, i64 12
  %39 = load <2 x float>, ptr %35, align 4
  %40 = fmul <2 x float> %39, <float 0x3F91DF46A0000000, float 0x3F91DF46A0000000>
  %41 = load <2 x float>, ptr %38, align 4
  %42 = fmul <2 x float> %41, <float 0x3F91DF46A0000000, float 0x3F91DF46A0000000>
  %43 = getelementptr inbounds i8, ptr %35, i64 20
  %44 = load float, ptr %43, align 4
  %45 = extractelement <2 x float> %42, i64 0
  %46 = fmul float %45, %7
  %47 = extractelement <2 x float> %40, i64 0
  %48 = call float @llvm.fmuladd.f32(float %23, float %47, float %46)
  %49 = extractelement <2 x float> %42, i64 1
  %50 = fmul float %49, %7
  %51 = extractelement <2 x float> %40, i64 1
  %52 = call float @llvm.fmuladd.f32(float %23, float %51, float %50)
  %53 = fmul float %44, %7
  %54 = call float @llvm.fmuladd.f32(float %23, float %37, float %53)
  %55 = sext i32 %28 to i64
  %56 = getelementptr inbounds [3 x float], ptr %3, i64 %55
  %57 = sext i32 %30 to i64
  %58 = getelementptr inbounds [3 x float], ptr %3, i64 %57
  %59 = sext i32 %32 to i64
  %60 = getelementptr inbounds [3 x float], ptr %3, i64 %59
  %61 = sext i32 %33 to i64
  %62 = getelementptr inbounds [3 x float], ptr %3, i64 %61
  %63 = call noundef float @_Z9dih_anglePKfS0_S0_S0_PK5t_pbcPfS4_S4_S4_S4_PiS5_S5_(ptr noundef %56, ptr noundef %58, ptr noundef %60, ptr noundef %62, ptr noundef %6, ptr noundef nonnull %18, ptr noundef nonnull %19, ptr noundef nonnull %20, ptr noundef nonnull %21, ptr noundef nonnull %22, ptr noundef nonnull %15, ptr noundef nonnull %16, ptr noundef nonnull %17)
  %64 = fsub float %63, %48
  %65 = fpext float %64 to double
  %66 = fcmp ult double %65, 0x400921FB54442D18
  br i1 %66, label %67, label %.sink.split.i

67:                                               ; preds = %.lr.ph
  %68 = fcmp olt double %65, 0xC00921FB54442D18
  br i1 %68, label %.sink.split.i, label %_Z16make_dp_periodicPf.exit

.sink.split.i:                                    ; preds = %67, %.lr.ph
  %.sink.i = phi double [ 0xC01921FB54442D18, %.lr.ph ], [ 0x401921FB54442D18, %67 ]
  %69 = fadd double %.sink.i, %65
  %70 = fptrunc double %69 to float
  br label %_Z16make_dp_periodicPf.exit

_Z16make_dp_periodicPf.exit:                      ; preds = %67, %.sink.split.i
  %.0100 = phi float [ %70, %.sink.split.i ], [ %64, %67 ]
  %71 = fcmp ogt float %.0100, %52
  br i1 %71, label %72, label %74

72:                                               ; preds = %_Z16make_dp_periodicPf.exit
  %73 = fsub float %.0100, %52
  br label %79

74:                                               ; preds = %_Z16make_dp_periodicPf.exit
  %75 = fneg float %52
  %76 = fcmp olt float %.0100, %75
  br i1 %76, label %77, label %.thread

77:                                               ; preds = %74
  %78 = fadd float %52, %.0100
  br label %79

79:                                               ; preds = %77, %72
  %.094 = phi float [ %73, %72 ], [ %78, %77 ]
  %80 = fcmp une float %.094, 0.000000e+00
  br i1 %80, label %81, label %.thread

81:                                               ; preds = %79
  %82 = fmul float %.094, %.094
  %83 = fpext float %54 to double
  %84 = fmul double %83, 5.000000e-01
  %85 = fpext float %82 to double
  %86 = fpext float %.0103 to double
  %87 = call double @llvm.fmuladd.f64(double %84, double %85, double %86)
  %88 = fptrunc double %87 to float
  %89 = fmul float %54, %.094
  %90 = fsub float %44, %37
  %91 = fpext float %90 to double
  %92 = fmul double %91, 5.000000e-01
  %93 = load float, ptr %8, align 4
  %94 = fpext float %93 to double
  %95 = call double @llvm.fmuladd.f64(double %92, double %85, double %94)
  %96 = fptrunc double %95 to float
  store float %96, ptr %8, align 4
  %97 = fcmp ogt float %.094, 0.000000e+00
  br i1 %97, label %98, label %104

98:                                               ; preds = %81
  %99 = fsub <2 x float> %42, %40
  %shift = shufflevector <2 x float> %99, <2 x float> poison, <2 x i32> <i32 1, i32 poison>
  %100 = fadd <2 x float> %99, %shift
  %101 = extractelement <2 x float> %100, i64 0
  %102 = fneg float %89
  %103 = call float @llvm.fmuladd.f32(float %102, float %101, float %96)
  br label %.sink.split

104:                                              ; preds = %81
  %105 = fcmp olt float %.094, 0.000000e+00
  br i1 %105, label %106, label %111

106:                                              ; preds = %104
  %107 = fsub <2 x float> %42, %40
  %shift105 = shufflevector <2 x float> %107, <2 x float> poison, <2 x i32> <i32 1, i32 poison>
  %108 = fsub <2 x float> %shift105, %107
  %109 = extractelement <2 x float> %108, i64 0
  %110 = call float @llvm.fmuladd.f32(float %89, float %109, float %96)
  br label %.sink.split

.sink.split:                                      ; preds = %98, %106
  %.sink = phi float [ %110, %106 ], [ %103, %98 ]
  store float %.sink, ptr %8, align 4
  br label %111

111:                                              ; preds = %.sink.split, %104
  %112 = load i32, ptr %15, align 4
  %113 = load i32, ptr %16, align 4
  %114 = load i32, ptr %17, align 4
  call void @_Z10do_dih_fupIL18BondedKernelFlavor2EEviiiifPfS1_S1_S1_S1_PA4_fPA3_fPK5t_pbcPA3_Kfiii(i32 noundef %28, i32 noundef %30, i32 noundef %32, i32 noundef %33, float noundef %89, ptr noundef nonnull %18, ptr noundef nonnull %19, ptr noundef nonnull %20, ptr noundef nonnull %21, ptr noundef nonnull %22, ptr noundef %4, ptr noundef %5, ptr noundef %6, ptr noundef %3, i32 noundef %112, i32 noundef %113, i32 noundef %114)
  br label %.thread

.thread:                                          ; preds = %74, %111, %79
  %.1 = phi float [ %88, %111 ], [ %.0103, %79 ], [ %.0103, %74 ]
  %115 = trunc nuw i64 %indvars.iv.next to i32
  %116 = icmp slt i32 %115, %0
  br i1 %116, label %.lr.ph, label %._crit_edge, !llvm.loop !159

._crit_edge:                                      ; preds = %.thread, %14
  %.0.lcssa = phi float [ 0.000000e+00, %14 ], [ %.1, %.thread ]
  ret float %.0.lcssa
}